target datalayout = "e-m:e-p270:32:32-p271:32:32-p272:64:64-i64:64-i128:128-f80:128-n8:16:32:64-S128"
target triple = "x86_64-pc-linux-gnu"

@__const._ZL13days_in_monthmm.month_table = private unnamed_addr constant [12 x i32] [i32 31, i32 28, i32 31, i32 30, i32 31, i32 30, i32 31, i32 31, i32 30, i32 31, i32 30, i32 31], align 16

; Function Attrs: mustprogress nounwind uwtable
define internal noundef i32 @_ZL12is_leap_yearl(i64 noundef %0) #4 {
  %2 = alloca i64, align 8
  store i64 %0, ptr %2, align 8, !tbaa !88
  %3 = load i64, ptr %2, align 8, !tbaa !88
  %4 = srem i64 %3, 4
  %5 = icmp eq i64 %4, 0
  br i1 %5, label %6, label %10

6:                                                ; preds = %1
  %7 = load i64, ptr %2, align 8, !tbaa !88
  %8 = srem i64 %7, 100
  %9 = icmp ne i64 %8, 0
  br i1 %9, label %14, label %10

10:                                               ; preds = %6, %1
  %11 = load i64, ptr %2, align 8, !tbaa !88
  %12 = srem i64 %11, 400
  %13 = icmp eq i64 %12, 0
  br label %14

14:                                               ; preds = %10, %6
  %15 = phi i1 [ true, %6 ], [ %13, %10 ]
  %16 = zext i1 %15 to i32
  ret i32 %16
}

; Function Attrs: mustprogress nounwind uwtable
define internal noundef i32 @_ZL13days_in_monthmm(i64 noundef %0, i64 noundef %1) #4 {
  %3 = alloca i64, align 8
  %4 = alloca i64, align 8
  %5 = alloca [12 x i32], align 16
  %6 = alloca i32, align 4
  store i64 %0, ptr %3, align 8, !tbaa !88
  store i64 %1, ptr %4, align 8, !tbaa !88
  call void @llvm.lifetime.start.p0(i64 48, ptr %5) #10
  call void @llvm.memcpy.p0.p0.i64(ptr align 16 %5, ptr align 16 @__const._ZL13days_in_monthmm.month_table, i64 48, i1 false)
  call void @llvm.lifetime.start.p0(i64 4, ptr %6) #10
  %7 = load i64, ptr %4, align 8, !tbaa !88
  %8 = icmp ugt i64 %7, 12
  br i1 %8, label %9, label %10

9:                                                ; preds = %2
  store i64 12, ptr %4, align 8, !tbaa !88
  br label %10

10:                                               ; preds = %9, %2
  %11 = load i64, ptr %4, align 8, !tbaa !88
  %12 = icmp eq i64 %11, 0
  br i1 %12, label %13, label %14

13:                                               ; preds = %10
  store i64 1, ptr %4, align 8, !tbaa !88
  br label %14

14:                                               ; preds = %13, %10
  %15 = load i64, ptr %4, align 8, !tbaa !88
  %16 = sub i64 %15, 1
  %17 = getelementptr inbounds nuw [12 x i32], ptr %5, i64 0, i64 %16
  %18 = load i32, ptr %17, align 4, !tbaa !43
  store i32 %18, ptr %6, align 4, !tbaa !43
  %19 = load i64, ptr %3, align 8, !tbaa !88
  %20 = call noundef i32 @_ZL12is_leap_yearl(i64 noundef %19)
  %21 = icmp ne i32 %20, 0
  br i1 %21, label %22, label %28

22:                                               ; preds = %14
  %23 = load i64, ptr %4, align 8, !tbaa !88
  %24 = icmp eq i64 %23, 2
  br i1 %24, label %25, label %28

25:                                               ; preds = %22
  %26 = load i32, ptr %6, align 4, !tbaa !43
  %27 = add i32 %26, 1
  store i32 %27, ptr %6, align 4, !tbaa !43
  br label %28

28:                                               ; preds = %25, %22, %14
  %29 = load i32, ptr %6, align 4, !tbaa !43
  call void @llvm.lifetime.end.p0(i64 4, ptr %6) #10
  call void @llvm.lifetime.end.p0(i64 48, ptr %5) #10
  ret i32 %29
}

; Function Attrs: mustprogress uwtable
define internal noundef i32 @_ZL12days_in_yearl(i64 noundef %0) #0 {
  %2 = alloca i64, align 8
  store i64 %0, ptr %2, align 8, !tbaa !88
  %3 = load i64, ptr %2, align 8, !tbaa !88
  %4 = call noundef i32 @_ZL12is_leap_yearl(i64 noundef %3)
  %5 = icmp ne i32 %4, 0
  %6 = select i1 %5, i32 366, i32 365
  ret i32 %6
}

; Function Attrs: mustprogress uwtable
define internal noundef double @_ZL15mjd_to_yyyymmddd(double noundef %0) #0 {
  %2 = alloca double, align 8
  %3 = alloca i32, align 4
  %4 = alloca i32, align 4
  %5 = alloca i32, align 4
  %6 = alloca i32, align 4
  %7 = alloca i32, align 4
  store double %0, ptr %2, align 8, !tbaa !62
  call void @llvm.lifetime.start.p0(i64 4, ptr %3) #10
  store i32 45, ptr %3, align 4, !tbaa !43
  call void @llvm.lifetime.start.p0(i64 4, ptr %4) #10
  store i32 1859, ptr %4, align 4, !tbaa !43
  call void @llvm.lifetime.start.p0(i64 4, ptr %5) #10
  store i32 0, ptr %5, align 4, !tbaa !43
  call void @llvm.lifetime.start.p0(i64 4, ptr %6) #10
  store i32 0, ptr %6, align 4, !tbaa !43
  call void @llvm.lifetime.start.p0(i64 4, ptr %7) #10
  %8 = load double, ptr %2, align 8, !tbaa !62
  %9 = call i64 @lround(double noundef %8) #10, !tbaa !43
  %10 = trunc i64 %9 to i32
  store i32 %10, ptr %7, align 4, !tbaa !43
  br label %11

11:                                               ; preds = %21, %1
  %12 = load i32, ptr %7, align 4, !tbaa !43
  %13 = load i32, ptr %3, align 4, !tbaa !43
  %14 = icmp uge i32 %12, %13
  br i1 %14, label %15, label %24

15:                                               ; preds = %11
  %16 = load i32, ptr %4, align 4, !tbaa !43
  %17 = zext i32 %16 to i64
  %18 = call noundef i32 @_ZL12days_in_yearl(i64 noundef %17)
  %19 = load i32, ptr %3, align 4, !tbaa !43
  %20 = add i32 %19, %18
  store i32 %20, ptr %3, align 4, !tbaa !43
  br label %21

21:                                               ; preds = %15
  %22 = load i32, ptr %4, align 4, !tbaa !43
  %23 = add i32 %22, 1
  store i32 %23, ptr %4, align 4, !tbaa !43
  br label %11, !llvm.loop !92

24:                                               ; preds = %11
  %25 = load i32, ptr %4, align 4, !tbaa !43
  %26 = add i32 %25, -1
  store i32 %26, ptr %4, align 4, !tbaa !43
  %27 = load i32, ptr %4, align 4, !tbaa !43
  %28 = zext i32 %27 to i64
  %29 = call noundef i32 @_ZL12days_in_yearl(i64 noundef %28)
  %30 = load i32, ptr %3, align 4, !tbaa !43
  %31 = sub i32 %30, %29
  store i32 %31, ptr %3, align 4, !tbaa !43
  store i32 1, ptr %5, align 4, !tbaa !43
  br label %32

32:                                               ; preds = %50, %24
  %33 = load i32, ptr %3, align 4, !tbaa !43
  %34 = load i32, ptr %4, align 4, !tbaa !43
  %35 = zext i32 %34 to i64
  %36 = load i32, ptr %5, align 4, !tbaa !43
  %37 = zext i32 %36 to i64
  %38 = call noundef i32 @_ZL13days_in_monthmm(i64 noundef %35, i64 noundef %37)
  %39 = add i32 %33, %38
  %40 = load i32, ptr %7, align 4, !tbaa !43
  %41 = icmp ule i32 %39, %40
  br i1 %41, label %42, label %53

42:                                               ; preds = %32
  %43 = load i32, ptr %4, align 4, !tbaa !43
  %44 = zext i32 %43 to i64
  %45 = load i32, ptr %5, align 4, !tbaa !43
  %46 = zext i32 %45 to i64
  %47 = call noundef i32 @_ZL13days_in_monthmm(i64 noundef %44, i64 noundef %46)
  %48 = load i32, ptr %3, align 4, !tbaa !43
  %49 = add i32 %48, %47
  store i32 %49, ptr %3, align 4, !tbaa !43
  br label %50

50:                                               ; preds = %42
  %51 = load i32, ptr %5, align 4, !tbaa !43
  %52 = add i32 %51, 1
  store i32 %52, ptr %5, align 4, !tbaa !43
  br label %32, !llvm.loop !93

53:                                               ; preds = %32
  %54 = load i32, ptr %7, align 4, !tbaa !43
  %55 = load i32, ptr %3, align 4, !tbaa !43
  %56 = sub i32 %54, %55
  %57 = add i32 %56, 1
  store i32 %57, ptr %6, align 4, !tbaa !43
  %58 = load i32, ptr %4, align 4, !tbaa !43
  %59 = uitofp i32 %58 to double
  %60 = load i32, ptr %5, align 4, !tbaa !43
  %61 = uitofp i32 %60 to double
  %62 = fmul double %61, 1.000000e+02
  %63 = call double @llvm.fmuladd.f64(double %59, double 1.000000e+04, double %62)
  %64 = load i32, ptr %6, align 4, !tbaa !43
  %65 = uitofp i32 %64 to double
  %66 = fadd double %63, %65
  call void @llvm.lifetime.end.p0(i64 4, ptr %7) #10
  call void @llvm.lifetime.end.p0(i64 4, ptr %6) #10
  call void @llvm.lifetime.end.p0(i64 4, ptr %5) #10
  call void @llvm.lifetime.end.p0(i64 4, ptr %4) #10
  call void @llvm.lifetime.end.p0(i64 4, ptr %3) #10
  ret double %66
}